target datalayout = "e-m:e-p270:32:32-p271:32:32-p272:64:64-i64:64-i128:128-f80:128-n8:16:32:64-S128"
target triple = "x86_64-unknown-linux-gnu"

%"class.icu_75::UnicodeString" = type { %"class.icu_75::Replaceable", %"union.icu_75::UnicodeString::StackBufferOrFields" }
%"class.icu_75::Replaceable" = type { %"class.icu_75::UObject" }
%"class.icu_75::UObject" = type { ptr }
%"union.icu_75::UnicodeString::StackBufferOrFields" = type { %struct.anon.0, [32 x i8] }
%struct.anon.0 = type { i16, i32, i32, ptr }
%"class.icu_75::TransliteratorIDParser::SingleID" = type { [8 x i8], %"class.icu_75::UnicodeString", %"class.icu_75::UnicodeString", %"class.icu_75::UnicodeString" }
%"class.icu_75::ConstChar16Ptr" = type { ptr }

@_ZN6icu_75L8ANY_NULLE = internal constant [9 x i16] [i16 65, i16 110, i16 121, i16 45, i16 78, i16 117, i16 108, i16 108, i16 0], align 16

; Function Attrs: mustprogress nounwind uwtable
define linkonce_odr noundef i32 @_ZNK6icu_7513UnicodeString14getShortLengthEv(ptr noundef nonnull align 8 dereferenceable(64) %this) #0 comdat align 2 {
entry:
  %this.addr = alloca ptr, align 8
  store ptr %this, ptr %this.addr, align 8
  %this1 = load ptr, ptr %this.addr, align 8
  %fUnion = getelementptr inbounds %"class.icu_75::UnicodeString", ptr %this1, i32 0, i32 1
  %fLengthAndFlags = getelementptr inbounds %struct.anon.0, ptr %fUnion, i32 0, i32 0
  %0 = load i16, ptr %fLengthAndFlags, align 8
  %conv = sext i16 %0 to i32
  %shr = ashr i32 %conv, 5
  ret i32 %shr
}

; Function Attrs: mustprogress nounwind uwtable
define linkonce_odr noundef signext i8 @_ZNK6icu_7513UnicodeString14hasShortLengthEv(ptr noundef nonnull align 8 dereferenceable(64) %this) #0 comdat align 2 {
entry:
  %this.addr = alloca ptr, align 8
  store ptr %this, ptr %this.addr, align 8
  %this1 = load ptr, ptr %this.addr, align 8
  %fUnion = getelementptr inbounds %"class.icu_75::UnicodeString", ptr %this1, i32 0, i32 1
  %fLengthAndFlags = getelementptr inbounds %struct.anon.0, ptr %fUnion, i32 0, i32 0
  %0 = load i16, ptr %fLengthAndFlags, align 8
  %conv = sext i16 %0 to i32
  %cmp = icmp sge i32 %conv, 0
  %conv2 = zext i1 %cmp to i8
  ret i8 %conv2
}

; Function Attrs: mustprogress nounwind uwtable
define internal noundef signext i8 @_ZL9U_FAILURE10UErrorCode(i32 noundef %code) #0 {
entry:
  %code.addr = alloca i32, align 4
  store i32 %code, ptr %code.addr, align 4
  %0 = load i32, ptr %code.addr, align 4
  %cmp = icmp sgt i32 %0, 0
  %conv = zext i1 %cmp to i8
  ret i8 %conv
}

; Function Attrs: mustprogress nounwind uwtable
define linkonce_odr void @_ZN6icu_7514ConstChar16PtrD2Ev(ptr noundef nonnull align 8 dereferenceable(8) %this) unnamed_addr #0 comdat align 2 {
entry:
  %this.addr = alloca ptr, align 8
  store ptr %this, ptr %this.addr, align 8
  %this1 = load ptr, ptr %this.addr, align 8
  %p_ = getelementptr inbounds %"class.icu_75::ConstChar16Ptr", ptr %this1, i32 0, i32 0
  %0 = load ptr, ptr %p_, align 8
  call void asm sideeffect "", "rm,~{memory},~{dirflag},~{fpsr},~{flags}"(ptr %0) #8, !srcloc !4
  ret void
}

; Function Attrs: mustprogress uwtable
define noundef ptr @_ZN6icu_7522TransliteratorIDParser19createBasicInstanceERKNS_13UnicodeStringEPS2_(ptr noundef nonnull align 8 dereferenceable(64) %id, ptr noundef %canonID) #1 align 2 {
entry:
  %id.addr = alloca ptr, align 8
  %canonID.addr = alloca ptr, align 8
  store ptr %id, ptr %id.addr, align 8
  store ptr %canonID, ptr %canonID.addr, align 8
  %0 = load ptr, ptr %id.addr, align 8
  %1 = load ptr, ptr %canonID.addr, align 8
  %call = call noundef ptr @_ZN6icu_7514Transliterator19createBasicInstanceERKNS_13UnicodeStringEPS2_(ptr noundef nonnull align 8 dereferenceable(64) %0, ptr noundef %1)
  ret ptr %call
}

; Function Attrs: mustprogress nounwind uwtable
define linkonce_odr void @_ZN6icu_7514ConstChar16PtrC2EPKDs(ptr noundef nonnull align 8 dereferenceable(8) %this, ptr noundef %p) unnamed_addr #0 comdat align 2 {
entry:
  %this.addr = alloca ptr, align 8
  %p.addr = alloca ptr, align 8
  store ptr %this, ptr %this.addr, align 8
  store ptr %p, ptr %p.addr, align 8
  %this1 = load ptr, ptr %this.addr, align 8
  %p_ = getelementptr inbounds %"class.icu_75::ConstChar16Ptr", ptr %this1, i32 0, i32 0
  %0 = load ptr, ptr %p.addr, align 8
  store ptr %0, ptr %p_, align 8
  ret void
}

; Function Attrs: mustprogress uwtable
define linkonce_odr noundef i32 @_ZNK6icu_7513UnicodeString6lengthEv(ptr noundef nonnull align 8 dereferenceable(64) %this) #1 comdat align 2 {
entry:
  %this.addr = alloca ptr, align 8
  store ptr %this, ptr %this.addr, align 8
  %this1 = load ptr, ptr %this.addr, align 8
  %call = call noundef signext i8 @_ZNK6icu_7513UnicodeString14hasShortLengthEv(ptr noundef nonnull align 8 dereferenceable(64) %this1)
  %tobool = icmp ne i8 %call, 0
  br i1 %tobool, label %cond.true, label %cond.false

cond.true:                                        ; preds = %entry
  %call2 = call noundef i32 @_ZNK6icu_7513UnicodeString14getShortLengthEv(ptr noundef nonnull align 8 dereferenceable(64) %this1)
  br label %cond.end

cond.false:                                       ; preds = %entry
  %fUnion = getelementptr inbounds %"class.icu_75::UnicodeString", ptr %this1, i32 0, i32 1
  %fLength = getelementptr inbounds %struct.anon.0, ptr %fUnion, i32 0, i32 1
  %0 = load i32, ptr %fLength, align 4
  br label %cond.end

cond.end:                                         ; preds = %cond.false, %cond.true
  %cond = phi i32 [ %call2, %cond.true ], [ %0, %cond.false ]
  ret i32 %cond
}

; Function Attrs: mustprogress uwtable
define noundef ptr @_ZN6icu_7522TransliteratorIDParser8SingleID14createInstanceEv(ptr noundef nonnull align 8 dereferenceable(200) %this) #1 align 2 personality ptr @__gxx_personality_v0 {
entry:
  %this.addr = alloca ptr, align 8
  %t = alloca ptr, align 8
  %ref.tmp = alloca %"class.icu_75::UnicodeString", align 8
  %agg.tmp = alloca %"class.icu_75::ConstChar16Ptr", align 8
  %exn.slot = alloca ptr, align 8
  %ehselector.slot = alloca i32, align 4
  %ec = alloca i32, align 4
  %set = alloca ptr, align 8
  %saved-rvalue = alloca ptr, align 8
  %cleanup.cond = alloca i1, align 1
  store ptr %this, ptr %this.addr, align 8
  %this1 = load ptr, ptr %this.addr, align 8
  %basicID = getelementptr inbounds %"class.icu_75::TransliteratorIDParser::SingleID", ptr %this1, i32 0, i32 2
  %call = call noundef i32 @_ZNK6icu_7513UnicodeString6lengthEv(ptr noundef nonnull align 8 dereferenceable(64) %basicID)
  %cmp = icmp eq i32 %call, 0
  br i1 %cmp, label %if.then, label %if.else

if.then:                                          ; preds = %entry
  call void @_ZN6icu_7514ConstChar16PtrC2EPKDs(ptr noundef nonnull align 8 dereferenceable(8) %agg.tmp, ptr noundef @_ZN6icu_75L8ANY_NULLE)
  invoke void @_ZN6icu_7513UnicodeStringC1EaNS_14ConstChar16PtrEi(ptr noundef nonnull align 8 dereferenceable(64) %ref.tmp, i8 noundef signext 1, ptr noundef %agg.tmp, i32 noundef 8)
          to label %invoke.cont unwind label %lpad

invoke.cont:                                      ; preds = %if.then
  %canonID = getelementptr inbounds %"class.icu_75::TransliteratorIDParser::SingleID", ptr %this1, i32 0, i32 1
  %call4 = invoke noundef ptr @_ZN6icu_7522TransliteratorIDParser19createBasicInstanceERKNS_13UnicodeStringEPS2_(ptr noundef nonnull align 8 dereferenceable(64) %ref.tmp, ptr noundef %canonID)
          to label %invoke.cont3 unwind label %lpad2

invoke.cont3:                                     ; preds = %invoke.cont
  store ptr %call4, ptr %t, align 8
  call void @_ZN6icu_7513UnicodeStringD1Ev(ptr noundef nonnull align 8 dereferenceable(64) %ref.tmp) #8
  call void @_ZN6icu_7514ConstChar16PtrD2Ev(ptr noundef nonnull align 8 dereferenceable(8) %agg.tmp) #8
  br label %if.end

lpad:                                             ; preds = %if.then
  %0 = landingpad { ptr, i32 }
          cleanup
  %1 = extractvalue { ptr, i32 } %0, 0
  store ptr %1, ptr %exn.slot, align 8
  %2 = extractvalue { ptr, i32 } %0, 1
  store i32 %2, ptr %ehselector.slot, align 4
  br label %ehcleanup

lpad2:                                            ; preds = %invoke.cont
  %3 = landingpad { ptr, i32 }
          cleanup
  %4 = extractvalue { ptr, i32 } %3, 0
  store ptr %4, ptr %exn.slot, align 8
  %5 = extractvalue { ptr, i32 } %3, 1
  store i32 %5, ptr %ehselector.slot, align 4
  call void @_ZN6icu_7513UnicodeStringD1Ev(ptr noundef nonnull align 8 dereferenceable(64) %ref.tmp) #8
  br label %ehcleanup

ehcleanup:                                        ; preds = %lpad2, %lpad
  call void @_ZN6icu_7514ConstChar16PtrD2Ev(ptr noundef nonnull align 8 dereferenceable(8) %agg.tmp) #8
  br label %eh.resume

if.else:                                          ; preds = %entry
  %basicID5 = getelementptr inbounds %"class.icu_75::TransliteratorIDParser::SingleID", ptr %this1, i32 0, i32 2
  %canonID6 = getelementptr inbounds %"class.icu_75::TransliteratorIDParser::SingleID", ptr %this1, i32 0, i32 1
  %call7 = call noundef ptr @_ZN6icu_7522TransliteratorIDParser19createBasicInstanceERKNS_13UnicodeStringEPS2_(ptr noundef nonnull align 8 dereferenceable(64) %basicID5, ptr noundef %canonID6)
  store ptr %call7, ptr %t, align 8
  br label %if.end

if.end:                                           ; preds = %if.else, %invoke.cont3
  %6 = load ptr, ptr %t, align 8
  %cmp8 = icmp ne ptr %6, null
  br i1 %cmp8, label %if.then9, label %if.end23

if.then9:                                         ; preds = %if.end
  %filter = getelementptr inbounds %"class.icu_75::TransliteratorIDParser::SingleID", ptr %this1, i32 0, i32 3
  %call10 = call noundef i32 @_ZNK6icu_7513UnicodeString6lengthEv(ptr noundef nonnull align 8 dereferenceable(64) %filter)
  %cmp11 = icmp ne i32 %call10, 0
  br i1 %cmp11, label %if.then12, label %if.end22

if.then12:                                        ; preds = %if.then9
  store i32 0, ptr %ec, align 4
  %call13 = call noundef ptr @_ZN6icu_757UMemorynwEm(i64 noundef 200) #8
  %new.isnull = icmp eq ptr %call13, null
  store i1 false, ptr %cleanup.cond, align 1
  br i1 %new.isnull, label %new.cont, label %new.notnull

new.notnull:                                      ; preds = %if.then12
  store ptr %call13, ptr %saved-rvalue, align 8
  store i1 true, ptr %cleanup.cond, align 1
  %filter14 = getelementptr inbounds %"class.icu_75::TransliteratorIDParser::SingleID", ptr %this1, i32 0, i32 3
  invoke void @_ZN6icu_7510UnicodeSetC1ERKNS_13UnicodeStringER10UErrorCode(ptr noundef nonnull align 8 dereferenceable(200) %call13, ptr noundef nonnull align 8 dereferenceable(64) %filter14, ptr noundef nonnull align 4 dereferenceable(4) %ec)
          to label %invoke.cont16 unwind label %lpad15

invoke.cont16:                                    ; preds = %new.notnull
  br label %new.cont

new.cont:                                         ; preds = %invoke.cont16, %if.then12
  %7 = phi ptr [ %call13, %invoke.cont16 ], [ null, %if.then12 ]
  store ptr %7, ptr %set, align 8
  %8 = load i32, ptr %ec, align 4
  %call18 = call noundef signext i8 @_ZL9U_FAILURE10UErrorCode(i32 noundef %8)
  %tobool = icmp ne i8 %call18, 0
  br i1 %tobool, label %if.then19, label %if.else20

if.then19:                                        ; preds = %new.cont
  %9 = load ptr, ptr %set, align 8
  %isnull = icmp eq ptr %9, null
  br i1 %isnull, label %delete.end, label %delete.notnull

delete.notnull:                                   ; preds = %if.then19
  call void @_ZN6icu_7510UnicodeSetD1Ev(ptr noundef nonnull align 8 dereferenceable(200) %9) #8
  call void @_ZN6icu_757UMemorydlEPv(ptr noundef %9) #8
  br label %delete.end

delete.end:                                       ; preds = %delete.notnull, %if.then19
  br label %if.end21

lpad15:                                           ; preds = %new.notnull
  %10 = landingpad { ptr, i32 }
          cleanup
  %11 = extractvalue { ptr, i32 } %10, 0
  store ptr %11, ptr %exn.slot, align 8
  %12 = extractvalue { ptr, i32 } %10, 1
  store i32 %12, ptr %ehselector.slot, align 4
  %cleanup.is_active = load i1, ptr %cleanup.cond, align 1
  br i1 %cleanup.is_active, label %cleanup.action, label %cleanup.done

cleanup.action:                                   ; preds = %lpad15
  %13 = load ptr, ptr %saved-rvalue, align 8
  call void @_ZN6icu_757UMemorydlEPv(ptr noundef %13) #8
  br label %cleanup.done

cleanup.done:                                     ; preds = %cleanup.action, %lpad15
  br label %eh.resume

if.else20:                                        ; preds = %new.cont
  %14 = load ptr, ptr %t, align 8
  %15 = load ptr, ptr %set, align 8
  call void @_ZN6icu_7514Transliterator11adoptFilterEPNS_13UnicodeFilterE(ptr noundef nonnull align 8 dereferenceable(84) %14, ptr noundef %15)
  br label %if.end21

if.end21:                                         ; preds = %if.else20, %delete.end
  br label %if.end22

if.end22:                                         ; preds = %if.end21, %if.then9
  br label %if.end23

if.end23:                                         ; preds = %if.end22, %if.end
  %16 = load ptr, ptr %t, align 8
  ret ptr %16

eh.resume:                                        ; preds = %cleanup.done, %ehcleanup
  %exn = load ptr, ptr %exn.slot, align 8
  %sel = load i32, ptr %ehselector.slot, align 4
  %lpad.val = insertvalue { ptr, i32 } poison, ptr %exn, 0
  %lpad.val24 = insertvalue { ptr, i32 } %lpad.val, i32 %sel, 1
  resume { ptr, i32 } %lpad.val24
}