; Function Attrs: mustprogress uwtable
define noundef ptr @_ZN6icu_7522TransliteratorIDParser8SingleID14createInstanceEv(ptr noundef nonnull align 8 dereferenceable(200) %this) local_unnamed_addr #1 align 2 personality ptr @__gxx_personality_v0 {
entry:
  %ref.tmp = alloca %"class.icu_75::UnicodeString", align 8
  %agg.tmp = alloca %"class.icu_75::ConstChar16Ptr", align 8
  %ec = alloca i32, align 4
  %fUnion.i.i = getelementptr inbounds i8, ptr %this, i64 80
  %0 = load i16, ptr %fUnion.i.i, align 8
  %cmp.i.i = icmp slt i16 %0, 0
  %1 = ashr i16 %0, 5
  %shr.i.i = sext i16 %1 to i32
  %fLength.i = getelementptr inbounds i8, ptr %this, i64 84
  %2 = load i32, ptr %fLength.i, align 4
  %cond.i = select i1 %cmp.i.i, i32 %2, i32 %shr.i.i
  %cmp = icmp eq i32 %cond.i, 0
  br i1 %cmp, label %if.then, label %if.else

if.then:                                          ; preds = %entry
  store ptr @_ZN6icu_75L8ANY_NULLE, ptr %agg.tmp, align 8
  invoke void @_ZN6icu_7513UnicodeStringC1EaNS_14ConstChar16PtrEi(ptr noundef nonnull align 8 dereferenceable(64) %ref.tmp, i8 noundef signext 1, ptr noundef nonnull %agg.tmp, i32 noundef 8)
          to label %invoke.cont unwind label %lpad

invoke.cont:                                      ; preds = %if.then
  %canonID = getelementptr inbounds i8, ptr %this, i64 8
  %call.i7 = invoke noundef ptr @_ZN6icu_7514Transliterator19createBasicInstanceERKNS_13UnicodeStringEPS2_(ptr noundef nonnull align 8 dereferenceable(64) %ref.tmp, ptr noundef nonnull %canonID)
          to label %invoke.cont3 unwind label %lpad2

invoke.cont3:                                     ; preds = %invoke.cont
  call void @_ZN6icu_7513UnicodeStringD1Ev(ptr noundef nonnull align 8 dereferenceable(64) %ref.tmp) #9
  %3 = load ptr, ptr %agg.tmp, align 8
  call void asm sideeffect "", "rm,~{memory},~{dirflag},~{fpsr},~{flags}"(ptr %3) #9, !srcloc !4
  br label %if.end

lpad:                                             ; preds = %if.then
  %4 = landingpad { ptr, i32 }
          cleanup
  br label %ehcleanup

lpad2:                                            ; preds = %invoke.cont
  %5 = landingpad { ptr, i32 }
          cleanup
  call void @_ZN6icu_7513UnicodeStringD1Ev(ptr noundef nonnull align 8 dereferenceable(64) %ref.tmp) #9
  br label %ehcleanup

ehcleanup:                                        ; preds = %lpad2, %lpad
  %.pn = phi { ptr, i32 } [ %5, %lpad2 ], [ %4, %lpad ]
  %6 = load ptr, ptr %agg.tmp, align 8
  call void asm sideeffect "", "rm,~{memory},~{dirflag},~{fpsr},~{flags}"(ptr %6) #9, !srcloc !4
  br label %eh.resume

if.else:                                          ; preds = %entry
  %basicID = getelementptr inbounds i8, ptr %this, i64 72
  %canonID6 = getelementptr inbounds i8, ptr %this, i64 8
  %call.i = tail call noundef ptr @_ZN6icu_7514Transliterator19createBasicInstanceERKNS_13UnicodeStringEPS2_(ptr noundef nonnull align 8 dereferenceable(64) %basicID, ptr noundef nonnull %canonID6)
  br label %if.end

if.end:                                           ; preds = %if.else, %invoke.cont3
  %t.0 = phi ptr [ %call.i7, %invoke.cont3 ], [ %call.i, %if.else ]
  %cmp8.not = icmp eq ptr %t.0, null
  br i1 %cmp8.not, label %if.end23, label %if.then9

if.then9:                                         ; preds = %if.end
  %filter = getelementptr inbounds i8, ptr %this, i64 136
  %fUnion.i.i8 = getelementptr inbounds i8, ptr %this, i64 144
  %7 = load i16, ptr %fUnion.i.i8, align 8
  %cmp.i.i9 = icmp slt i16 %7, 0
  %8 = ashr i16 %7, 5
  %shr.i.i10 = sext i16 %8 to i32
  %fLength.i11 = getelementptr inbounds i8, ptr %this, i64 148
  %9 = load i32, ptr %fLength.i11, align 4
  %cond.i12 = select i1 %cmp.i.i9, i32 %9, i32 %shr.i.i10
  %cmp11.not = icmp eq i32 %cond.i12, 0
  br i1 %cmp11.not, label %if.end23, label %if.then12

if.then12:                                        ; preds = %if.then9
  store i32 0, ptr %ec, align 4
  %call13 = call noundef ptr @_ZN6icu_757UMemorynwEm(i64 noundef 200) #9
  %new.isnull = icmp eq ptr %call13, null
  br i1 %new.isnull, label %if.else20, label %new.notnull

new.notnull:                                      ; preds = %if.then12
  invoke void @_ZN6icu_7510UnicodeSetC1ERKNS_13UnicodeStringER10UErrorCode(ptr noundef nonnull align 8 dereferenceable(200) %call13, ptr noundef nonnull align 8 dereferenceable(64) %filter, ptr noundef nonnull align 4 dereferenceable(4) %ec)
          to label %new.cont unwind label %lpad15

new.cont:                                         ; preds = %new.notnull
  %10 = load i32, ptr %ec, align 4
  %cmp.i = icmp slt i32 %10, 1
  br i1 %cmp.i, label %if.else20, label %delete.notnull

delete.notnull:                                   ; preds = %new.cont
  call void @_ZN6icu_7510UnicodeSetD1Ev(ptr noundef nonnull align 8 dereferenceable(200) %call13) #9
  call void @_ZN6icu_757UMemorydlEPv(ptr noundef nonnull %call13) #9
  br label %if.end23

lpad15:                                           ; preds = %new.notnull
  %11 = landingpad { ptr, i32 }
          cleanup
  call void @_ZN6icu_757UMemorydlEPv(ptr noundef nonnull %call13) #9
  br label %eh.resume

if.else20:                                        ; preds = %if.then12, %new.cont
  call void @_ZN6icu_7514Transliterator11adoptFilterEPNS_13UnicodeFilterE(ptr noundef nonnull align 8 dereferenceable(84) %t.0, ptr noundef %call13)
  br label %if.end23

if.end23:                                         ; preds = %if.then9, %delete.notnull, %if.else20, %if.end
  ret ptr %t.0

eh.resume:                                        ; preds = %lpad15, %ehcleanup
  %.pn5 = phi { ptr, i32 } [ %11, %lpad15 ], [ %.pn, %ehcleanup ]
  resume { ptr, i32 } %.pn5
}